target datalayout = "e-m:e-p270:32:32-p271:32:32-p272:64:64-i64:64-i128:128-f80:128-n8:16:32:64-S128"
target triple = "x86_64-pc-linux-gnu"

%struct.hb_font_funcs_t = type { %struct.hb_object_header_t, ptr, ptr, %"union.hb_font_funcs_t::get_t" }
%struct.hb_object_header_t = type { %struct.hb_reference_count_t, %struct.hb_atomic_int_t, %struct.hb_atomic_ptr_t }
%struct.hb_reference_count_t = type { %struct.hb_atomic_int_t }
%struct.hb_atomic_int_t = type { i32 }
%struct.hb_atomic_ptr_t = type { ptr }
%"union.hb_font_funcs_t::get_t" = type { %"struct.hb_font_funcs_t::get_t::get_funcs_t" }
%"struct.hb_font_funcs_t::get_t::get_funcs_t" = type { ptr, ptr, ptr, ptr, ptr, ptr, ptr, ptr, ptr, ptr, ptr, ptr, ptr, ptr, ptr, ptr, ptr, ptr, ptr }
%struct.hb_atomic_ptr_t.1 = type { ptr }
%struct.hb_atomic_ptr_t.5 = type { ptr }
%struct.hb_font_t = type { %struct.hb_object_header_t, i32, i32, ptr, ptr, i32, i32, float, float, i8, i32, i32, float, float, float, float, i64, i64, i32, i32, float, i32, i32, ptr, ptr, ptr, ptr, ptr, %struct.hb_shaper_object_dataset_t }
%struct.hb_shaper_object_dataset_t = type { ptr, %struct.hb_shaper_lazy_loader_t, %struct.hb_shaper_lazy_loader_t.2 }
%struct.hb_shaper_lazy_loader_t = type { %struct.hb_lazy_loader_t }
%struct.hb_lazy_loader_t = type { %struct.hb_atomic_ptr_t.1 }
%struct.hb_shaper_lazy_loader_t.2 = type { %struct.hb_lazy_loader_t.3 }
%struct.hb_lazy_loader_t.3 = type { %struct.hb_atomic_ptr_t.5 }
%struct.anon.0 = type { ptr, ptr, ptr, ptr, ptr, ptr, ptr, ptr, ptr, ptr, ptr, ptr, ptr, ptr, ptr, ptr, ptr, ptr, ptr }

; Function Attrs: mustprogress uwtable
define linkonce_odr hidden noundef i32 @_ZN9hb_font_t19get_glyph_v_advanceEj(ptr noundef nonnull align 8 dereferenceable(192) %0, i32 noundef %1) #0 comdat align 2 {
  %3 = alloca ptr, align 8
  %4 = alloca i32, align 4
  store ptr %0, ptr %3, align 8
  store i32 %1, ptr %4, align 4
  %5 = load ptr, ptr %3, align 8
  %6 = getelementptr inbounds %struct.hb_font_t, ptr %5, i32 0, i32 25
  %7 = load ptr, ptr %6, align 8
  %8 = getelementptr inbounds %struct.hb_font_funcs_t, ptr %7, i32 0, i32 3
  %9 = getelementptr inbounds %"struct.hb_font_funcs_t::get_t::get_funcs_t", ptr %8, i32 0, i32 6
  %10 = load ptr, ptr %9, align 8
  %11 = getelementptr inbounds %struct.hb_font_t, ptr %5, i32 0, i32 26
  %12 = load ptr, ptr %11, align 8
  %13 = load i32, ptr %4, align 4
  %14 = getelementptr inbounds %struct.hb_font_t, ptr %5, i32 0, i32 25
  %15 = load ptr, ptr %14, align 8
  %16 = getelementptr inbounds %struct.hb_font_funcs_t, ptr %15, i32 0, i32 1
  %17 = load ptr, ptr %16, align 8
  %18 = icmp ne ptr %17, null
  br i1 %18, label %20, label %19

19:                                               ; preds = %2
  br label %27

20:                                               ; preds = %2
  %21 = getelementptr inbounds %struct.hb_font_t, ptr %5, i32 0, i32 25
  %22 = load ptr, ptr %21, align 8
  %23 = getelementptr inbounds %struct.hb_font_funcs_t, ptr %22, i32 0, i32 1
  %24 = load ptr, ptr %23, align 8
  %25 = getelementptr inbounds %struct.anon.0, ptr %24, i32 0, i32 6
  %26 = load ptr, ptr %25, align 8
  br label %27

27:                                               ; preds = %20, %19
  %28 = phi ptr [ null, %19 ], [ %26, %20 ]
  %29 = call noundef i32 %10(ptr noundef %5, ptr noundef %12, i32 noundef %13, ptr noundef %28)
  ret i32 %29
}

; Function Attrs: mustprogress uwtable
define linkonce_odr hidden noundef i32 @_ZN9hb_font_t19get_glyph_h_advanceEj(ptr noundef nonnull align 8 dereferenceable(192) %0, i32 noundef %1) #0 comdat align 2 {
  %3 = alloca ptr, align 8
  %4 = alloca i32, align 4
  store ptr %0, ptr %3, align 8
  store i32 %1, ptr %4, align 4
  %5 = load ptr, ptr %3, align 8
  %6 = getelementptr inbounds %struct.hb_font_t, ptr %5, i32 0, i32 25
  %7 = load ptr, ptr %6, align 8
  %8 = getelementptr inbounds %struct.hb_font_funcs_t, ptr %7, i32 0, i32 3
  %9 = getelementptr inbounds %"struct.hb_font_funcs_t::get_t::get_funcs_t", ptr %8, i32 0, i32 5
  %10 = load ptr, ptr %9, align 8
  %11 = getelementptr inbounds %struct.hb_font_t, ptr %5, i32 0, i32 26
  %12 = load ptr, ptr %11, align 8
  %13 = load i32, ptr %4, align 4
  %14 = getelementptr inbounds %struct.hb_font_t, ptr %5, i32 0, i32 25
  %15 = load ptr, ptr %14, align 8
  %16 = getelementptr inbounds %struct.hb_font_funcs_t, ptr %15, i32 0, i32 1
  %17 = load ptr, ptr %16, align 8
  %18 = icmp ne ptr %17, null
  br i1 %18, label %20, label %19

19:                                               ; preds = %2
  br label %27

20:                                               ; preds = %2
  %21 = getelementptr inbounds %struct.hb_font_t, ptr %5, i32 0, i32 25
  %22 = load ptr, ptr %21, align 8
  %23 = getelementptr inbounds %struct.hb_font_funcs_t, ptr %22, i32 0, i32 1
  %24 = load ptr, ptr %23, align 8
  %25 = getelementptr inbounds %struct.anon.0, ptr %24, i32 0, i32 5
  %26 = load ptr, ptr %25, align 8
  br label %27

27:                                               ; preds = %20, %19
  %28 = phi ptr [ null, %19 ], [ %26, %20 ]
  %29 = call noundef i32 %10(ptr noundef %5, ptr noundef %12, i32 noundef %13, ptr noundef %28)
  ret i32 %29
}

; Function Attrs: mustprogress uwtable
define linkonce_odr hidden void @_ZN9hb_font_t31get_glyph_advance_for_directionEj14hb_direction_tPiS1_(ptr noundef nonnull align 8 dereferenceable(192) %0, i32 noundef %1, i32 noundef %2, ptr noundef %3, ptr noundef %4) #0 comdat align 2 {
  %6 = alloca ptr, align 8
  %7 = alloca i32, align 4
  %8 = alloca i32, align 4
  %9 = alloca ptr, align 8
  %10 = alloca ptr, align 8
  store ptr %0, ptr %6, align 8
  store i32 %1, ptr %7, align 4
  store i32 %2, ptr %8, align 4
  store ptr %3, ptr %9, align 8
  store ptr %4, ptr %10, align 8
  %11 = load ptr, ptr %6, align 8
  %12 = load ptr, ptr %10, align 8
  store i32 0, ptr %12, align 4
  %13 = load ptr, ptr %9, align 8
  store i32 0, ptr %13, align 4
  %14 = load i32, ptr %8, align 4
  %15 = and i32 %14, -2
  %16 = icmp eq i32 %15, 4
  br i1 %16, label %17, label %21

17:                                               ; preds = %5
  %18 = load i32, ptr %7, align 4
  %19 = call noundef i32 @_ZN9hb_font_t19get_glyph_h_advanceEj(ptr noundef nonnull align 8 dereferenceable(192) %11, i32 noundef %18)
  %20 = load ptr, ptr %9, align 8
  store i32 %19, ptr %20, align 4
  br label %25

21:                                               ; preds = %5
  %22 = load i32, ptr %7, align 4
  %23 = call noundef i32 @_ZN9hb_font_t19get_glyph_v_advanceEj(ptr noundef nonnull align 8 dereferenceable(192) %11, i32 noundef %22)
  %24 = load ptr, ptr %10, align 8
  store i32 %23, ptr %24, align 4
  br label %25

25:                                               ; preds = %21, %17
  ret void
}

; Function Attrs: mustprogress uwtable
define hidden void @hb_font_get_glyph_advance_for_direction(ptr noundef %0, i32 noundef %1, i32 noundef %2, ptr noundef %3, ptr noundef %4) #0 {
  %6 = alloca ptr, align 8
  %7 = alloca i32, align 4
  %8 = alloca i32, align 4
  %9 = alloca ptr, align 8
  %10 = alloca ptr, align 8
  store ptr %0, ptr %6, align 8
  store i32 %1, ptr %7, align 4
  store i32 %2, ptr %8, align 4
  store ptr %3, ptr %9, align 8
  store ptr %4, ptr %10, align 8
  %11 = load ptr, ptr %6, align 8
  %12 = load i32, ptr %7, align 4
  %13 = load i32, ptr %8, align 4
  %14 = load ptr, ptr %9, align 8
  %15 = load ptr, ptr %10, align 8
  call void @_ZN9hb_font_t31get_glyph_advance_for_directionEj14hb_direction_tPiS1_(ptr noundef nonnull align 8 dereferenceable(192) %11, i32 noundef %12, i32 noundef %13, ptr noundef %14, ptr noundef %15)
  ret void
}