; Function Attrs: mustprogress uwtable
define hidden void @hb_font_get_glyph_advance_for_direction(ptr noundef %0, i32 noundef %1, i32 noundef %2, ptr nocapture noundef writeonly %3, ptr nocapture noundef writeonly %4) local_unnamed_addr #1 {
  store i32 0, ptr %4, align 4
  store i32 0, ptr %3, align 4
  %6 = and i32 %2, -2
  %7 = icmp eq i32 %6, 4
  %8 = getelementptr inbounds i8, ptr %0, i64 144
  %9 = load ptr, ptr %8, align 8
  %10 = getelementptr inbounds i8, ptr %0, i64 152
  %11 = load ptr, ptr %10, align 8
  %12 = getelementptr inbounds i8, ptr %9, i64 16
  %13 = load ptr, ptr %12, align 8
  %.not.i.i = icmp eq ptr %13, null
  br i1 %7, label %14, label %22

14:                                               ; preds = %5
  %15 = getelementptr inbounds i8, ptr %9, i64 72
  %16 = load ptr, ptr %15, align 8
  br i1 %.not.i.i, label %_ZN9hb_font_t19get_glyph_h_advanceEj.exit.i, label %17

17:                                               ; preds = %14
  %18 = getelementptr inbounds i8, ptr %13, i64 40
  %19 = load ptr, ptr %18, align 8
  br label %_ZN9hb_font_t19get_glyph_h_advanceEj.exit.i

_ZN9hb_font_t19get_glyph_h_advanceEj.exit.i:      ; preds = %17, %14
  %20 = phi ptr [ %19, %17 ], [ null, %14 ]
  %21 = tail call noundef i32 %16(ptr noundef nonnull %0, ptr noundef %11, i32 noundef %1, ptr noundef %20)
  store i32 %21, ptr %3, align 4
  br label %_ZN9hb_font_t31get_glyph_advance_for_directionEj14hb_direction_tPiS1_.exit

22:                                               ; preds = %5
  %23 = getelementptr inbounds i8, ptr %9, i64 80
  %24 = load ptr, ptr %23, align 8
  br i1 %.not.i.i, label %_ZN9hb_font_t19get_glyph_v_advanceEj.exit.i, label %25

25:                                               ; preds = %22
  %26 = getelementptr inbounds i8, ptr %13, i64 48
  %27 = load ptr, ptr %26, align 8
  br label %_ZN9hb_font_t19get_glyph_v_advanceEj.exit.i

_ZN9hb_font_t19get_glyph_v_advanceEj.exit.i:      ; preds = %25, %22
  %28 = phi ptr [ %27, %25 ], [ null, %22 ]
  %29 = tail call noundef i32 %24(ptr noundef nonnull %0, ptr noundef %11, i32 noundef %1, ptr noundef %28)
  store i32 %29, ptr %4, align 4
  br label %_ZN9hb_font_t31get_glyph_advance_for_directionEj14hb_direction_tPiS1_.exit

_ZN9hb_font_t31get_glyph_advance_for_directionEj14hb_direction_tPiS1_.exit: ; preds = %_ZN9hb_font_t19get_glyph_h_advanceEj.exit.i, %_ZN9hb_font_t19get_glyph_v_advanceEj.exit.i
  ret void
}